target datalayout = "e-m:e-p270:32:32-p271:32:32-p272:64:64-i64:64-i128:128-f80:128-n8:16:32:64-S128"
target triple = "x86_64-pc-linux-gnu"

%struct.dh_st = type { i32, i32, %struct.ffc_params_st, i32, ptr, ptr, i32, ptr, %struct.CRYPTO_REF_COUNT, %struct.crypto_ex_data_st, ptr, ptr, ptr, ptr, i64 }
%struct.ffc_params_st = type { ptr, ptr, ptr, ptr, ptr, i64, i32, i32, i32, i32, i32, ptr, ptr, i32 }
%struct.CRYPTO_REF_COUNT = type { i32 }
%struct.crypto_ex_data_st = type { ptr, ptr }

; Function Attrs: inlinehint nounwind uwtable
define internal i32 @dh_bn_dup_check(ptr noundef %0, ptr noundef %1) #3 {
  %3 = alloca i32, align 4
  %4 = alloca ptr, align 8
  %5 = alloca ptr, align 8
  store ptr %0, ptr %4, align 8, !tbaa !36
  store ptr %1, ptr %5, align 8, !tbaa !16
  %6 = load ptr, ptr %5, align 8, !tbaa !16
  %7 = icmp ne ptr %6, null
  br i1 %7, label %8, label %14

8:                                                ; preds = %2
  %9 = load ptr, ptr %5, align 8, !tbaa !16
  %10 = call ptr @BN_dup(ptr noundef %9)
  %11 = load ptr, ptr %4, align 8, !tbaa !36
  store ptr %10, ptr %11, align 8, !tbaa !16
  %12 = icmp eq ptr %10, null
  br i1 %12, label %13, label %14

13:                                               ; preds = %8
  store i32 0, ptr %3, align 4
  br label %15

14:                                               ; preds = %8, %2
  store i32 1, ptr %3, align 4
  br label %15

15:                                               ; preds = %14, %13
  %16 = load i32, ptr %3, align 4
  ret i32 %16
}

; Function Attrs: nounwind uwtable
define i32 @ossl_dh_is_foreign(ptr noundef %0) #0 {
  %2 = alloca i32, align 4
  %3 = alloca ptr, align 8
  store ptr %0, ptr %3, align 8, !tbaa !3
  %4 = load ptr, ptr %3, align 8, !tbaa !3
  %5 = getelementptr inbounds nuw %struct.dh_st, ptr %4, i32 0, i32 10
  %6 = load ptr, ptr %5, align 8, !tbaa !20
  %7 = icmp ne ptr %6, null
  br i1 %7, label %13, label %8

8:                                                ; preds = %1
  %9 = load ptr, ptr %3, align 8, !tbaa !3
  %10 = call ptr @ossl_dh_get_method(ptr noundef %9)
  %11 = call ptr @DH_OpenSSL()
  %12 = icmp ne ptr %10, %11
  br i1 %12, label %13, label %14

13:                                               ; preds = %8, %1
  store i32 1, ptr %2, align 4
  br label %15

14:                                               ; preds = %8
  store i32 0, ptr %2, align 4
  br label %15

15:                                               ; preds = %14, %13
  %16 = load i32, ptr %2, align 4
  ret i32 %16
}

; Function Attrs: nounwind uwtable
define ptr @ossl_dh_dup(ptr noundef %0, i32 noundef %1) #0 {
  %3 = alloca ptr, align 8
  %4 = alloca ptr, align 8
  %5 = alloca i32, align 4
  %6 = alloca ptr, align 8
  %7 = alloca i32, align 4
  store ptr %0, ptr %4, align 8, !tbaa !3
  store i32 %1, ptr %5, align 4, !tbaa !14
  call void @llvm.lifetime.start.p0(i64 8, ptr %6) #4
  store ptr null, ptr %6, align 8, !tbaa !3
  %8 = load ptr, ptr %4, align 8, !tbaa !3
  %9 = call i32 @ossl_dh_is_foreign(ptr noundef %8)
  %10 = icmp ne i32 %9, 0
  br i1 %10, label %11, label %12

11:                                               ; preds = %2
  store ptr null, ptr %3, align 8
  store i32 1, ptr %7, align 4
  br label %87

12:                                               ; preds = %2
  %13 = load ptr, ptr %4, align 8, !tbaa !3
  %14 = getelementptr inbounds nuw %struct.dh_st, ptr %13, i32 0, i32 11
  %15 = load ptr, ptr %14, align 8, !tbaa !31
  %16 = call ptr @ossl_dh_new_ex(ptr noundef %15)
  store ptr %16, ptr %6, align 8, !tbaa !3
  %17 = icmp eq ptr %16, null
  br i1 %17, label %18, label %19

18:                                               ; preds = %12
  store ptr null, ptr %3, align 8
  store i32 1, ptr %7, align 4
  br label %87

19:                                               ; preds = %12
  %20 = load ptr, ptr %4, align 8, !tbaa !3
  %21 = call i64 @DH_get_length(ptr noundef %20)
  %22 = trunc i64 %21 to i32
  %23 = load ptr, ptr %6, align 8, !tbaa !3
  %24 = getelementptr inbounds nuw %struct.dh_st, ptr %23, i32 0, i32 3
  store i32 %22, ptr %24, align 8, !tbaa !32
  %25 = load i32, ptr %5, align 4, !tbaa !14
  %26 = and i32 %25, 4
  %27 = icmp ne i32 %26, 0
  br i1 %27, label %28, label %36

28:                                               ; preds = %19
  %29 = load ptr, ptr %6, align 8, !tbaa !3
  %30 = getelementptr inbounds nuw %struct.dh_st, ptr %29, i32 0, i32 2
  %31 = load ptr, ptr %4, align 8, !tbaa !3
  %32 = getelementptr inbounds nuw %struct.dh_st, ptr %31, i32 0, i32 2
  %33 = call i32 @ossl_ffc_params_copy(ptr noundef %30, ptr noundef %32)
  %34 = icmp ne i32 %33, 0
  br i1 %34, label %36, label %35

35:                                               ; preds = %28
  br label %85

36:                                               ; preds = %28, %19
  %37 = load ptr, ptr %4, align 8, !tbaa !3
  %38 = getelementptr inbounds nuw %struct.dh_st, ptr %37, i32 0, i32 6
  %39 = load i32, ptr %38, align 8, !tbaa !33
  %40 = load ptr, ptr %6, align 8, !tbaa !3
  %41 = getelementptr inbounds nuw %struct.dh_st, ptr %40, i32 0, i32 6
  store i32 %39, ptr %41, align 8, !tbaa !33
  %42 = load i32, ptr %5, align 4, !tbaa !14
  %43 = and i32 %42, 2
  %44 = icmp ne i32 %43, 0
  br i1 %44, label %45, label %58

45:                                               ; preds = %36
  %46 = load i32, ptr %5, align 4, !tbaa !14
  %47 = and i32 %46, 4
  %48 = icmp eq i32 %47, 0
  br i1 %48, label %57, label %49

49:                                               ; preds = %45
  %50 = load ptr, ptr %6, align 8, !tbaa !3
  %51 = getelementptr inbounds nuw %struct.dh_st, ptr %50, i32 0, i32 4
  %52 = load ptr, ptr %4, align 8, !tbaa !3
  %53 = getelementptr inbounds nuw %struct.dh_st, ptr %52, i32 0, i32 4
  %54 = load ptr, ptr %53, align 8, !tbaa !34
  %55 = call i32 @dh_bn_dup_check(ptr noundef %51, ptr noundef %54)
  %56 = icmp ne i32 %55, 0
  br i1 %56, label %58, label %57

57:                                               ; preds = %49, %45
  br label %85

58:                                               ; preds = %49, %36
  %59 = load i32, ptr %5, align 4, !tbaa !14
  %60 = and i32 %59, 1
  %61 = icmp ne i32 %60, 0
  br i1 %61, label %62, label %75

62:                                               ; preds = %58
  %63 = load i32, ptr %5, align 4, !tbaa !14
  %64 = and i32 %63, 4
  %65 = icmp eq i32 %64, 0
  br i1 %65, label %74, label %66

66:                                               ; preds = %62
  %67 = load ptr, ptr %6, align 8, !tbaa !3
  %68 = getelementptr inbounds nuw %struct.dh_st, ptr %67, i32 0, i32 5
  %69 = load ptr, ptr %4, align 8, !tbaa !3
  %70 = getelementptr inbounds nuw %struct.dh_st, ptr %69, i32 0, i32 5
  %71 = load ptr, ptr %70, align 8, !tbaa !35
  %72 = call i32 @dh_bn_dup_check(ptr noundef %68, ptr noundef %71)
  %73 = icmp ne i32 %72, 0
  br i1 %73, label %75, label %74

74:                                               ; preds = %66, %62
  br label %85

75:                                               ; preds = %66, %58
  %76 = load ptr, ptr %6, align 8, !tbaa !3
  %77 = getelementptr inbounds nuw %struct.dh_st, ptr %76, i32 0, i32 9
  %78 = load ptr, ptr %4, align 8, !tbaa !3
  %79 = getelementptr inbounds nuw %struct.dh_st, ptr %78, i32 0, i32 9
  %80 = call i32 @CRYPTO_dup_ex_data(i32 noundef 6, ptr noundef %77, ptr noundef %79)
  %81 = icmp ne i32 %80, 0
  br i1 %81, label %83, label %82

82:                                               ; preds = %75
  br label %85

83:                                               ; preds = %75
  %84 = load ptr, ptr %6, align 8, !tbaa !3
  store ptr %84, ptr %3, align 8
  store i32 1, ptr %7, align 4
  br label %87

85:                                               ; preds = %82, %74, %57, %35
  %86 = load ptr, ptr %6, align 8, !tbaa !3
  call void @DH_free(ptr noundef %86)
  store ptr null, ptr %3, align 8
  store i32 1, ptr %7, align 4
  br label %87

87:                                               ; preds = %85, %83, %18, %11
  call void @llvm.lifetime.end.p0(i64 8, ptr %6) #4
  %88 = load ptr, ptr %3, align 8
  ret ptr %88
}