; Function Attrs: nounwind uwtable
define ptr @ossl_dh_dup(ptr noundef %0, i32 noundef %1) local_unnamed_addr #0 {
  %3 = getelementptr inbounds nuw i8, ptr %0, i64 168
  %4 = load ptr, ptr %3, align 8, !tbaa !10
  %.not.i = icmp eq ptr %4, null
  br i1 %.not.i, label %ossl_dh_is_foreign.exit, label %ossl_dh_is_foreign.exit.thread

ossl_dh_is_foreign.exit:                          ; preds = %2
  %5 = tail call ptr @ossl_dh_get_method(ptr noundef nonnull %0) #3
  %6 = tail call ptr @DH_OpenSSL() #3
  %.not2.i.not = icmp eq ptr %5, %6
  br i1 %.not2.i.not, label %7, label %ossl_dh_is_foreign.exit.thread

7:                                                ; preds = %ossl_dh_is_foreign.exit
  %8 = getelementptr inbounds nuw i8, ptr %0, i64 176
  %9 = load ptr, ptr %8, align 8, !tbaa !22
  %10 = tail call ptr @ossl_dh_new_ex(ptr noundef %9) #3
  %11 = icmp eq ptr %10, null
  br i1 %11, label %ossl_dh_is_foreign.exit.thread, label %12

12:                                               ; preds = %7
  %13 = tail call i64 @DH_get_length(ptr noundef nonnull %0) #3
  %14 = trunc i64 %13 to i32
  %15 = getelementptr inbounds nuw i8, ptr %10, i64 104
  store i32 %14, ptr %15, align 8, !tbaa !23
  %16 = and i32 %1, 4
  %.not22 = icmp eq i32 %16, 0
  br i1 %.not22, label %21, label %17

17:                                               ; preds = %12
  %18 = getelementptr inbounds nuw i8, ptr %10, i64 8
  %19 = getelementptr inbounds nuw i8, ptr %0, i64 8
  %20 = tail call i32 @ossl_ffc_params_copy(ptr noundef nonnull %18, ptr noundef nonnull %19) #3
  %.not23 = icmp eq i32 %20, 0
  br i1 %.not23, label %dh_bn_dup_check.exit.thread, label %.thread

21:                                               ; preds = %12
  %22 = getelementptr inbounds nuw i8, ptr %0, i64 128
  %23 = load i32, ptr %22, align 8, !tbaa !24
  %24 = getelementptr inbounds nuw i8, ptr %10, i64 128
  store i32 %23, ptr %24, align 8, !tbaa !24
  %25 = and i32 %1, 3
  %or.cond = icmp eq i32 %25, 0
  br i1 %or.cond, label %dh_bn_dup_check.exit33, label %dh_bn_dup_check.exit.thread

.thread:                                          ; preds = %17
  %26 = getelementptr inbounds nuw i8, ptr %0, i64 128
  %27 = load i32, ptr %26, align 8, !tbaa !24
  %28 = getelementptr inbounds nuw i8, ptr %10, i64 128
  store i32 %27, ptr %28, align 8, !tbaa !24
  %29 = and i32 %1, 2
  %.not2436 = icmp eq i32 %29, 0
  br i1 %.not2436, label %dh_bn_dup_check.exit, label %30

30:                                               ; preds = %.thread
  %31 = getelementptr inbounds nuw i8, ptr %0, i64 112
  %32 = load ptr, ptr %31, align 8, !tbaa !25
  %.not.i29 = icmp eq ptr %32, null
  br i1 %.not.i29, label %dh_bn_dup_check.exit, label %33

33:                                               ; preds = %30
  %34 = getelementptr inbounds nuw i8, ptr %10, i64 112
  %35 = tail call ptr @BN_dup(ptr noundef nonnull %32) #3
  store ptr %35, ptr %34, align 8, !tbaa !7
  %36 = icmp eq ptr %35, null
  br i1 %36, label %dh_bn_dup_check.exit.thread, label %dh_bn_dup_check.exit

dh_bn_dup_check.exit:                             ; preds = %33, %30, %.thread
  %37 = and i32 %1, 1
  %.not26 = icmp eq i32 %37, 0
  br i1 %.not26, label %dh_bn_dup_check.exit33, label %38

38:                                               ; preds = %dh_bn_dup_check.exit
  %39 = getelementptr inbounds nuw i8, ptr %0, i64 120
  %40 = load ptr, ptr %39, align 8, !tbaa !26
  %.not.i31 = icmp eq ptr %40, null
  br i1 %.not.i31, label %dh_bn_dup_check.exit33, label %41

41:                                               ; preds = %38
  %42 = getelementptr inbounds nuw i8, ptr %10, i64 120
  %43 = tail call ptr @BN_dup(ptr noundef nonnull %40) #3
  store ptr %43, ptr %42, align 8, !tbaa !7
  %44 = icmp eq ptr %43, null
  br i1 %44, label %dh_bn_dup_check.exit.thread, label %dh_bn_dup_check.exit33

dh_bn_dup_check.exit33:                           ; preds = %21, %41, %38, %dh_bn_dup_check.exit
  %45 = getelementptr inbounds nuw i8, ptr %10, i64 152
  %46 = getelementptr inbounds nuw i8, ptr %0, i64 152
  %47 = tail call i32 @CRYPTO_dup_ex_data(i32 noundef 6, ptr noundef nonnull %45, ptr noundef nonnull %46) #3
  %.not28 = icmp eq i32 %47, 0
  br i1 %.not28, label %dh_bn_dup_check.exit.thread, label %ossl_dh_is_foreign.exit.thread

dh_bn_dup_check.exit.thread:                      ; preds = %41, %33, %21, %dh_bn_dup_check.exit33, %17
  tail call void @DH_free(ptr noundef nonnull %10) #3
  br label %ossl_dh_is_foreign.exit.thread

ossl_dh_is_foreign.exit.thread:                   ; preds = %2, %dh_bn_dup_check.exit33, %7, %ossl_dh_is_foreign.exit, %dh_bn_dup_check.exit.thread
  %.0 = phi ptr [ null, %dh_bn_dup_check.exit.thread ], [ null, %ossl_dh_is_foreign.exit ], [ null, %7 ], [ %10, %dh_bn_dup_check.exit33 ], [ null, %2 ]
  ret ptr %.0
}